target datalayout = "e-m:e-p270:32:32-p271:32:32-p272:64:64-i64:64-i128:128-f80:128-n8:16:32:64-S128"
target triple = "x86_64-pc-linux-gnu"

%struct._packet_info = type { ptr, ptr, i32, i32, %struct.nstime_t, %struct.nstime_t, %struct.nstime_t, i8, ptr, ptr, ptr, ptr, %struct._address, %struct._address, %struct._address, %struct._address, %struct._address, %struct._address, i32, ptr, i8, [3 x i8], %struct.anon, i32, i32, i32, i32, ptr, i8, ptr, ptr, i16, i16, i32, i32, i16, i32, i32, ptr, ptr, ptr, i8, i8, i16, i16, i16, i32, i16, i16, ptr, ptr, ptr, ptr, ptr, i32, i32 }
%struct.nstime_t = type { i64, i32 }
%struct._address = type { i32, i32, ptr, ptr }
%struct.anon = type { i8, [3 x i8] }

@hf_dpnss_a_b_party_addr = internal global i32 0, align 4
@hf_dpnss_call_idx = internal global i32 0, align 4
@hf_dpnss_parameter = internal global i32 0, align 4
@.str.201 = private unnamed_addr constant [13 x i8] c"Unknown (%d)\00", align 1
@.str.697 = private unnamed_addr constant [5 x i8] c"None\00", align 1
@.str.698 = private unnamed_addr constant [17 x i8] c"Parameter %s: %s\00", align 1

; Function Attrs: null_pointer_is_valid sspstrong uwtable
define internal void @dissect_dpnns_sup_str_par(ptr noundef %0, ptr noundef %1, ptr noundef %2, i32 noundef %3, i32 noundef %4, i32 noundef %5) #0 {
  %7 = alloca ptr, align 8
  %8 = alloca ptr, align 8
  %9 = alloca ptr, align 8
  %10 = alloca i32, align 4
  %11 = alloca i32, align 4
  %12 = alloca i32, align 4
  %13 = alloca i32, align 4
  %14 = alloca ptr, align 8
  store ptr %0, ptr %7, align 8
  store ptr %1, ptr %8, align 8
  store ptr %2, ptr %9, align 8
  store i32 %3, ptr %10, align 4
  store i32 %4, ptr %11, align 4
  store i32 %5, ptr %12, align 4
  call void @llvm.lifetime.start.p0(i64 4, ptr %13) #3
  call void @llvm.lifetime.start.p0(i64 8, ptr %14) #3
  %15 = load i32, ptr %12, align 4
  %16 = load i32, ptr %11, align 4
  %17 = sub i32 %15, %16
  store i32 %17, ptr %13, align 4
  %18 = load i32, ptr %13, align 4
  %19 = icmp eq i32 %18, 0
  br i1 %19, label %20, label %21

20:                                               ; preds = %6
  store i32 0, ptr %10, align 4
  br label %21

21:                                               ; preds = %20, %6
  %22 = load i32, ptr %10, align 4
  switch i32 %22, label %44 [
    i32 0, label %23
    i32 13, label %30
    i32 18, label %37
  ]

23:                                               ; preds = %21
  %24 = load ptr, ptr %9, align 8
  %25 = load i32, ptr @hf_dpnss_parameter, align 4
  %26 = load ptr, ptr %7, align 8
  %27 = load i32, ptr %11, align 4
  %28 = load i32, ptr %13, align 4
  %29 = call ptr @proto_tree_add_string(ptr noundef %24, i32 noundef %25, ptr noundef %26, i32 noundef %27, i32 noundef %28, ptr noundef @.str.697)
  br label %62

30:                                               ; preds = %21
  %31 = load ptr, ptr %9, align 8
  %32 = load i32, ptr @hf_dpnss_a_b_party_addr, align 4
  %33 = load ptr, ptr %7, align 8
  %34 = load i32, ptr %11, align 4
  %35 = load i32, ptr %13, align 4
  %36 = call ptr @proto_tree_add_item(ptr noundef %31, i32 noundef %32, ptr noundef %33, i32 noundef %34, i32 noundef %35, i32 noundef 0)
  br label %62

37:                                               ; preds = %21
  %38 = load ptr, ptr %9, align 8
  %39 = load i32, ptr @hf_dpnss_call_idx, align 4
  %40 = load ptr, ptr %7, align 8
  %41 = load i32, ptr %11, align 4
  %42 = load i32, ptr %13, align 4
  %43 = call ptr @proto_tree_add_item(ptr noundef %38, i32 noundef %39, ptr noundef %40, i32 noundef %41, i32 noundef %42, i32 noundef 0)
  br label %62

44:                                               ; preds = %21
  %45 = load ptr, ptr %8, align 8
  %46 = getelementptr inbounds nuw %struct._packet_info, ptr %45, i32 0, i32 51
  %47 = load ptr, ptr %46, align 8
  %48 = load ptr, ptr %7, align 8
  %49 = load i32, ptr %11, align 4
  %50 = load i32, ptr %13, align 4
  %51 = call ptr @tvb_format_text(ptr noundef %47, ptr noundef %48, i32 noundef %49, i32 noundef %50)
  store ptr %51, ptr %14, align 8
  %52 = load ptr, ptr %9, align 8
  %53 = load i32, ptr @hf_dpnss_parameter, align 4
  %54 = load ptr, ptr %7, align 8
  %55 = load i32, ptr %11, align 4
  %56 = load i32, ptr %13, align 4
  %57 = load ptr, ptr %14, align 8
  %58 = load i32, ptr %10, align 4
  %59 = call ptr @val_to_str(i32 noundef %58, ptr noundef @dpnss_sup_serv_par_str_vals, ptr noundef @.str.201)
  %60 = load ptr, ptr %14, align 8
  %61 = call ptr (ptr, i32, ptr, i32, i32, ptr, ptr, ...) @proto_tree_add_string_format(ptr noundef %52, i32 noundef %53, ptr noundef %54, i32 noundef %55, i32 noundef %56, ptr noundef %57, ptr noundef @.str.698, ptr noundef %59, ptr noundef %60)
  br label %62

62:                                               ; preds = %44, %37, %30, %23
  call void @llvm.lifetime.end.p0(i64 8, ptr %14) #3
  call void @llvm.lifetime.end.p0(i64 4, ptr %13) #3
  ret void
}