; Function Attrs: null_pointer_is_valid sspstrong uwtable
define internal fastcc void @dissect_dpnns_sup_str_par(ptr noundef %0, ptr noundef readonly captures(none) %1, ptr noundef %2, i32 noundef %3, i32 noundef %4, i32 noundef %5) unnamed_addr #0 {
  %7 = sub i32 %5, %4
  %8 = icmp eq i32 %5, %4
  %spec.select = select i1 %8, i32 0, i32 %3
  switch i32 %spec.select, label %18 [
    i32 0, label %9
    i32 13, label %12
    i32 18, label %15
  ]

9:                                                ; preds = %6
  %10 = load i32, ptr @hf_dpnss_parameter, align 4
  %11 = tail call ptr @proto_tree_add_string(ptr noundef %2, i32 noundef %10, ptr noundef %0, i32 noundef %4, i32 noundef %7, ptr noundef nonnull @.str.697)
  br label %25

12:                                               ; preds = %6
  %13 = load i32, ptr @hf_dpnss_a_b_party_addr, align 4
  %14 = tail call ptr @proto_tree_add_item(ptr noundef %2, i32 noundef %13, ptr noundef %0, i32 noundef %4, i32 noundef %7, i32 noundef 0)
  br label %25

15:                                               ; preds = %6
  %16 = load i32, ptr @hf_dpnss_call_idx, align 4
  %17 = tail call ptr @proto_tree_add_item(ptr noundef %2, i32 noundef %16, ptr noundef %0, i32 noundef %4, i32 noundef %7, i32 noundef 0)
  br label %25

18:                                               ; preds = %6
  %19 = getelementptr inbounds nuw i8, ptr %1, i64 408
  %20 = load ptr, ptr %19, align 8
  %21 = tail call ptr @tvb_format_text(ptr noundef %20, ptr noundef %0, i32 noundef %4, i32 noundef %7)
  %22 = load i32, ptr @hf_dpnss_parameter, align 4
  %23 = tail call ptr @val_to_str(i32 noundef %spec.select, ptr noundef nonnull @dpnss_sup_serv_par_str_vals, ptr noundef nonnull @.str.201)
  %24 = tail call ptr (ptr, i32, ptr, i32, i32, ptr, ptr, ...) @proto_tree_add_string_format(ptr noundef %2, i32 noundef %22, ptr noundef %0, i32 noundef %4, i32 noundef %7, ptr noundef %21, ptr noundef nonnull @.str.698, ptr noundef %23, ptr noundef %21)
  br label %25

25:                                               ; preds = %18, %15, %12, %9
  ret void
}